GAS LISTING /tmp/cclNM7M6.s 			page 1


   1               		.file	"switches.c"
   2               	__SP_H__ = 0x3e
   3               	__SP_L__ = 0x3d
   4               	__SREG__ = 0x3f
   5               	__tmp_reg__ = 0
   6               	__zero_reg__ = 1
   7               		.stabs	"/home/ghost/Project/LineFollower/",100,0,2,.Ltext0
   8               		.stabs	"./lib/switches.c",100,0,2,.Ltext0
   9               		.text
  10               	.Ltext0:
  11               		.stabs	"gcc2_compiled.",60,0,0,0
  12               		.stabs	"int:t(0,1)=r(0,1);-32768;32767;",128,0,0,0
  13               		.stabs	"char:t(0,2)=@s8;r(0,2);0;255;",128,0,0,0
  14               		.stabs	"long int:t(0,3)=@s32;r(0,3);020000000000;017777777777;",128,0,0,0
  15               		.stabs	"unsigned int:t(0,4)=r(0,4);0;0177777;",128,0,0,0
  16               		.stabs	"long unsigned int:t(0,5)=@s32;r(0,5);0;037777777777;",128,0,0,0
  17               		.stabs	"long long int:t(0,6)=@s64;r(0,6);01000000000000000000000;0777777777777777777777;",128,0,0,
  18               		.stabs	"long long unsigned int:t(0,7)=@s64;r(0,7);0;01777777777777777777777;",128,0,0,0
  19               		.stabs	"short int:t(0,8)=r(0,8);-32768;32767;",128,0,0,0
  20               		.stabs	"short unsigned int:t(0,9)=r(0,9);0;0177777;",128,0,0,0
  21               		.stabs	"signed char:t(0,10)=@s8;r(0,10);-128;127;",128,0,0,0
  22               		.stabs	"unsigned char:t(0,11)=@s8;r(0,11);0;255;",128,0,0,0
  23               		.stabs	"float:t(0,12)=r(0,1);4;0;",128,0,0,0
  24               		.stabs	"double:t(0,13)=r(0,1);4;0;",128,0,0,0
  25               		.stabs	"long double:t(0,14)=r(0,1);4;0;",128,0,0,0
  26               		.stabs	"short _Fract:t(0,15)=r(0,1);1;0;",128,0,0,0
  27               		.stabs	"_Fract:t(0,16)=r(0,1);2;0;",128,0,0,0
  28               		.stabs	"long _Fract:t(0,17)=r(0,1);4;0;",128,0,0,0
  29               		.stabs	"long long _Fract:t(0,18)=r(0,1);8;0;",128,0,0,0
  30               		.stabs	"unsigned short _Fract:t(0,19)=r(0,1);1;0;",128,0,0,0
  31               		.stabs	"unsigned _Fract:t(0,20)=r(0,1);2;0;",128,0,0,0
  32               		.stabs	"unsigned long _Fract:t(0,21)=r(0,1);4;0;",128,0,0,0
  33               		.stabs	"unsigned long long _Fract:t(0,22)=r(0,1);8;0;",128,0,0,0
  34               		.stabs	"_Sat short _Fract:t(0,23)=r(0,1);1;0;",128,0,0,0
  35               		.stabs	"_Sat _Fract:t(0,24)=r(0,1);2;0;",128,0,0,0
  36               		.stabs	"_Sat long _Fract:t(0,25)=r(0,1);4;0;",128,0,0,0
  37               		.stabs	"_Sat long long _Fract:t(0,26)=r(0,1);8;0;",128,0,0,0
  38               		.stabs	"_Sat unsigned short _Fract:t(0,27)=r(0,1);1;0;",128,0,0,0
  39               		.stabs	"_Sat unsigned _Fract:t(0,28)=r(0,1);2;0;",128,0,0,0
  40               		.stabs	"_Sat unsigned long _Fract:t(0,29)=r(0,1);4;0;",128,0,0,0
  41               		.stabs	"_Sat unsigned long long _Fract:t(0,30)=r(0,1);8;0;",128,0,0,0
  42               		.stabs	"short _Accum:t(0,31)=r(0,1);2;0;",128,0,0,0
  43               		.stabs	"_Accum:t(0,32)=r(0,1);4;0;",128,0,0,0
  44               		.stabs	"long _Accum:t(0,33)=r(0,1);8;0;",128,0,0,0
  45               		.stabs	"long long _Accum:t(0,34)=r(0,1);8;0;",128,0,0,0
  46               		.stabs	"unsigned short _Accum:t(0,35)=r(0,1);2;0;",128,0,0,0
  47               		.stabs	"unsigned _Accum:t(0,36)=r(0,1);4;0;",128,0,0,0
  48               		.stabs	"unsigned long _Accum:t(0,37)=r(0,1);8;0;",128,0,0,0
  49               		.stabs	"unsigned long long _Accum:t(0,38)=r(0,1);8;0;",128,0,0,0
  50               		.stabs	"_Sat short _Accum:t(0,39)=r(0,1);2;0;",128,0,0,0
  51               		.stabs	"_Sat _Accum:t(0,40)=r(0,1);4;0;",128,0,0,0
  52               		.stabs	"_Sat long _Accum:t(0,41)=r(0,1);8;0;",128,0,0,0
  53               		.stabs	"_Sat long long _Accum:t(0,42)=r(0,1);8;0;",128,0,0,0
  54               		.stabs	"_Sat unsigned short _Accum:t(0,43)=r(0,1);2;0;",128,0,0,0
  55               		.stabs	"_Sat unsigned _Accum:t(0,44)=r(0,1);4;0;",128,0,0,0
  56               		.stabs	"_Sat unsigned long _Accum:t(0,45)=r(0,1);8;0;",128,0,0,0
  57               		.stabs	"_Sat unsigned long long _Accum:t(0,46)=r(0,1);8;0;",128,0,0,0
GAS LISTING /tmp/cclNM7M6.s 			page 2


  58               		.stabs	"void:t(0,47)=(0,47)",128,0,0,0
  59               		.stabs	"./lib/inc/asuro.h",130,0,0,0
  60               		.stabs	"/usr/lib/avr/include/avr/io.h",130,0,0,0
  61               		.stabs	"/usr/lib/avr/include/avr/sfr_defs.h",130,0,0,0
  62               		.stabs	"/usr/lib/avr/include/inttypes.h",130,0,0,0
  63               		.stabs	"/usr/lib/gcc/avr/4.9.2/include/stdint.h",130,0,0,0
  64               		.stabs	"/usr/lib/avr/include/stdint.h",130,0,0,0
  65               		.stabs	"int8_t:t(6,1)=(0,10)",128,0,121,0
  66               		.stabs	"uint8_t:t(6,2)=(0,11)",128,0,122,0
  67               		.stabs	"int16_t:t(6,3)=(0,1)",128,0,123,0
  68               		.stabs	"uint16_t:t(6,4)=(0,4)",128,0,124,0
  69               		.stabs	"int32_t:t(6,5)=(0,3)",128,0,125,0
  70               		.stabs	"uint32_t:t(6,6)=(0,5)",128,0,126,0
  71               		.stabs	"int64_t:t(6,7)=(0,6)",128,0,128,0
  72               		.stabs	"uint64_t:t(6,8)=(0,7)",128,0,129,0
  73               		.stabs	"intptr_t:t(6,9)=(6,3)",128,0,142,0
  74               		.stabs	"uintptr_t:t(6,10)=(6,4)",128,0,147,0
  75               		.stabs	"int_least8_t:t(6,11)=(6,1)",128,0,159,0
  76               		.stabs	"uint_least8_t:t(6,12)=(6,2)",128,0,164,0
  77               		.stabs	"int_least16_t:t(6,13)=(6,3)",128,0,169,0
  78               		.stabs	"uint_least16_t:t(6,14)=(6,4)",128,0,174,0
  79               		.stabs	"int_least32_t:t(6,15)=(6,5)",128,0,179,0
  80               		.stabs	"uint_least32_t:t(6,16)=(6,6)",128,0,184,0
  81               		.stabs	"int_least64_t:t(6,17)=(6,7)",128,0,192,0
  82               		.stabs	"uint_least64_t:t(6,18)=(6,8)",128,0,199,0
  83               		.stabs	"int_fast8_t:t(6,19)=(6,1)",128,0,213,0
  84               		.stabs	"uint_fast8_t:t(6,20)=(6,2)",128,0,218,0
  85               		.stabs	"int_fast16_t:t(6,21)=(6,3)",128,0,223,0
  86               		.stabs	"uint_fast16_t:t(6,22)=(6,4)",128,0,228,0
  87               		.stabs	"int_fast32_t:t(6,23)=(6,5)",128,0,233,0
  88               		.stabs	"uint_fast32_t:t(6,24)=(6,6)",128,0,238,0
  89               		.stabs	"int_fast64_t:t(6,25)=(6,7)",128,0,246,0
  90               		.stabs	"uint_fast64_t:t(6,26)=(6,8)",128,0,253,0
  91               		.stabs	"intmax_t:t(6,27)=(6,7)",128,0,273,0
  92               		.stabs	"uintmax_t:t(6,28)=(6,8)",128,0,278,0
  93               		.stabn	162,0,0,0
  94               		.stabn	162,0,0,0
  95               		.stabs	"int_farptr_t:t(4,1)=(6,5)",128,0,77,0
  96               		.stabs	"uint_farptr_t:t(4,2)=(6,6)",128,0,81,0
  97               		.stabn	162,0,0,0
  98               		.stabn	162,0,0,0
  99               		.stabs	"/usr/lib/avr/include/avr/fuse.h",130,0,0,0
 100               		.stabs	"__fuse_t:t(7,1)=(7,2)=s2low:(0,11),0,8;high:(0,11),8,8;;",128,0,252,0
 101               		.stabn	162,0,0,0
 102               		.stabn	162,0,0,0
 103               		.stabs	"/usr/lib/avr/include/avr/pgmspace.h",130,0,0,0
 104               		.stabs	"/usr/lib/gcc/avr/4.9.2/include/stddef.h",130,0,0,0
 105               		.stabs	"size_t:t(9,1)=(0,4)",128,0,212,0
 106               		.stabn	162,0,0,0
 107               		.stabn	162,0,0,0
 108               		.stabs	"/usr/lib/avr/include/stdlib.h",130,0,0,0
 109               		.stabs	"/usr/lib/gcc/avr/4.9.2/include/stddef.h",130,0,0,0
 110               		.stabs	"wchar_t:t(11,1)=(0,1)",128,0,324,0
 111               		.stabn	162,0,0,0
 112               		.stabs	"div_t:t(10,1)=(10,2)=s4quot:(0,1),0,16;rem:(0,1),16,16;;",128,0,71,0
 113               		.stabs	"ldiv_t:t(10,3)=(10,4)=s8quot:(0,3),0,32;rem:(0,3),32,32;;",128,0,77,0
 114               		.stabs	"__compar_fn_t:t(10,5)=(10,6)=*(10,7)=f(0,1)",128,0,80,0
GAS LISTING /tmp/cclNM7M6.s 			page 3


 115               		.stabn	162,0,0,0
 116               		.stabs	"voidFuncPtr:t(1,1)=(1,2)=*(1,3)=f(0,47)",128,0,343,0
 117               		.stabn	162,0,0,0
 118               		.section	.text.PollSwitch,"ax",@progbits
 119               		.stabs	"PollSwitch:F(0,11)",36,0,88,PollSwitch
 120               	.global	PollSwitch
 121               		.type	PollSwitch, @function
 122               	PollSwitch:
 123               		.stabd	46,0,0
   1:./lib/switches.c **** /****************************************************************************/
   2:./lib/switches.c **** /*!
   3:./lib/switches.c ****   \file     switches.c
   4:./lib/switches.c **** 
   5:./lib/switches.c ****   \brief    Funktionen zum lesen der Taster und um den 'Interrupt-Betrieb' ein-\n
   6:./lib/switches.c ****             und auszuschalten. Im 'Interrupt-Betrieb' wird die globale Variable\n
   7:./lib/switches.c ****             switched gesetzt beim betaetigen irgendeines Tasters.
   8:./lib/switches.c **** 
   9:./lib/switches.c ****   \see      Define fuer die Auswahl des ADC-Kanals in asuro.h\n
  10:./lib/switches.c ****             SWITCH
  11:./lib/switches.c **** 
  12:./lib/switches.c ****   \version  V--- - 10.11.2003 - Jan Grewe - DLR\n
  13:./lib/switches.c ****             Original Version von der ASURO CD\n
  14:./lib/switches.c ****   \version  V--- - bis zum 07.01.2007 - \n
  15:./lib/switches.c ****             Bitte in Datei CHANGELOG nachsehen.\n
  16:./lib/switches.c ****   \version  V001 - 13.01.2007 - m.a.r.v.i.n\n
  17:./lib/switches.c ****             +++ Alle Funktionen\n
  18:./lib/switches.c ****             Zerlegte Sourcen in einzelne Dateien fuer eine echte Library.
  19:./lib/switches.c ****   \version  V002 - 22.01.2007 - Sternthaler\n
  20:./lib/switches.c ****             +++ Alle Funktionen\n
  21:./lib/switches.c ****             Kommentierte Version (KEINE Funktionsaenderung)
  22:./lib/switches.c ****   \version  V003 - 18.02.2007 - Sternthaler\n
  23:./lib/switches.c ****             +++ StartSwitch()
  24:./lib/switches.c ****             Korrektur im Code-Beispiel
  25:./lib/switches.c ****   \version  V004 - 20.02.2007 - m.a.r.v.i.n\n
  26:./lib/switches.c ****             Korrekturfaktur aus myasuro.h verwenden
  27:./lib/switches.c ****   \version  V005 - 20.01.2008 - m.a.r.v.i.n\n
  28:./lib/switches.c ****             ReadADC Funktion zum Auslesen des A/D Wandlers verwenden\n
  29:./lib/switches.c ****             Anpassungen an ATmega168
  30:./lib/switches.c ****   \version  V006 - 21.04.2008 - m.a.r.v.i.n\n
  31:./lib/switches.c ****             Bug Report von RN-User thowil\n
  32:./lib/switches.c ****             - Bugfix in PollSwitch Funktion fuehrt zu staendig neuen Interrupts\n
  33:./lib/switches.c ****               bei Verwendung mit StartSwitch\n
  34:./lib/switches.c ****             - PollSwitch kehrt jetzt sofort ohne A/D Wandlung zurueck\n
  35:./lib/switches.c ****               wenn keine Taste gedrueckt wurde
  36:./lib/switches.c ****   \version  V007 - 29.03.2009 - rossir\n
  37:./lib/switches.c ****             A/D Wandler Abfrage ueber Interrupt  
  38:./lib/switches.c **** 
  39:./lib/switches.c **** *****************************************************************************/
  40:./lib/switches.c **** /*****************************************************************************
  41:./lib/switches.c **** *                                                                            *
  42:./lib/switches.c **** *   This program is free software; you can redistribute it and/or modify     *
  43:./lib/switches.c **** *   it under the terms of the GNU General Public License as published by     *
  44:./lib/switches.c **** *   the Free Software Foundation; either version 2 of the License, or        *
  45:./lib/switches.c **** *   any later version.                                                       *
  46:./lib/switches.c **** *                                                                            *
  47:./lib/switches.c **** *****************************************************************************/
  48:./lib/switches.c **** #include "asuro.h"
GAS LISTING /tmp/cclNM7M6.s 			page 4


  49:./lib/switches.c **** #include "myasuro.h"
  50:./lib/switches.c **** 
  51:./lib/switches.c **** 
  52:./lib/switches.c **** 
  53:./lib/switches.c **** /****************************************************************************/
  54:./lib/switches.c **** /*!
  55:./lib/switches.c ****   \brief
  56:./lib/switches.c ****   Tastsensor Abfrage im 'Polling-Betrieb'.
  57:./lib/switches.c **** 
  58:./lib/switches.c ****   \return
  59:./lib/switches.c ****   Tastenwert bitorientiert, K1 = Bit5, K2 = Bit4, K3 = Bit3, K4 = Bit2,
  60:./lib/switches.c ****   K5 = Bit1, K6 = Bit0
  61:./lib/switches.c **** 
  62:./lib/switches.c ****   \par  Hinweis:
  63:./lib/switches.c ****   In dieser Funktion ist ein Sleep() Aufruf vorhanden. Der wird benoetigt\n
  64:./lib/switches.c ****   damit IsrStandard() genügend Zeit bekommt so, dass der zweite PollSwitch aufruf
  65:./lib/switches.c ****   auch garantiert einen neuen Wert zur Verfügung hat.
  66:./lib/switches.c **** 
  67:./lib/switches.c ****   \par  Beispiel:
  68:./lib/switches.c ****   (Nur zur Demonstration der Parameter/Returnwerte)
  69:./lib/switches.c ****   \code
  70:./lib/switches.c ****   uint8_t t1, t2;
  71:./lib/switches.c ****   unsigned char text [16];
  72:./lib/switches.c **** 
  73:./lib/switches.c ****   while (1)
  74:./lib/switches.c ****   {
  75:./lib/switches.c ****     t1 = PollSwitch ();
  76:./lib/switches.c ****     t2 = PollSwitch ();
  77:./lib/switches.c ****     // 2x PollSwitch aufrufen und beide Rueckgabewerte auf Gleichheit ueberpruefen
  78:./lib/switches.c ****     if (t1 && t2 && t1 == t2)           // irgendeine Taste gedrueckt 
  79:./lib/switches.c ****     {
  80:./lib/switches.c ****       itoa (t1, text, 10);              // Tastenwert senden 
  81:./lib/switches.c ****       SerPrint (text);
  82:./lib/switches.c ****       SerPrint ("\r\n");                // Zeilenvorschub 
  83:./lib/switches.c ****     }
  84:./lib/switches.c ****     Msleep (500);                       // 0,5 sek warten
  85:./lib/switches.c ****   }
  86:./lib/switches.c ****   \endcode
  87:./lib/switches.c **** *****************************************************************************/
  88:./lib/switches.c **** unsigned char PollSwitch (void)
  89:./lib/switches.c **** {
 124               		.stabn	68,0,89,.LM0-.LFBB1
 125               	.LM0:
 126               	.LFBB1:
 127               	/* prologue: function */
 128               	/* frame size = 0 */
 129               	/* stack size = 0 */
 130               	.L__stack_usage = 0
  90:./lib/switches.c ****   unsigned int i;
  91:./lib/switches.c ****   
  92:./lib/switches.c ****   if (!switched) return 0;        // Kehrt sofort zurück, falls kein Taster gedrueckt ist 
 131               		.stabn	68,0,92,.LM1-.LFBB1
 132               	.LM1:
 133 0000 8091 0000 		lds r24,switched
 134 0004 9091 0000 		lds r25,switched+1
 135 0008 892B      		or r24,r25
 136 000a 01F4      		brne .L2
GAS LISTING /tmp/cclNM7M6.s 			page 5


 137               	.L4:
 138 000c 80E0      		ldi r24,0
 139 000e 0895      		ret
 140               	.L2:
  93:./lib/switches.c ****   
  94:./lib/switches.c ****   i = ReadADC(SWITCH, 15);  // sleep 15 ms -> Rückwärtskompatibel?! und wg. timing da draussen und 
 141               		.stabn	68,0,94,.LM2-.LFBB1
 142               	.LM2:
 143 0010 6FE0      		ldi r22,lo8(15)
 144 0012 70E0      		ldi r23,0
 145 0014 84E0      		ldi r24,lo8(4)
 146 0016 90E0      		ldi r25,0
 147 0018 00D0      		rcall ReadADC
  95:./lib/switches.c **** 
  96:./lib/switches.c ****   if (i>=MY_SWITCH_THRESHHOLD) return 0;	// Eher rauschen -> raus hier!
 148               		.stabn	68,0,96,.LM3-.LFBB1
 149               	.LM3:
 150 001a 823F      		cpi r24,-14
 151 001c 23E0      		ldi r18,3
 152 001e 9207      		cpc r25,r18
 153 0020 00F4      		brsh .L4
  97:./lib/switches.c ****   
  98:./lib/switches.c ****   // Es wurde "ganz sicher" eine Taste gedrückt.
  99:./lib/switches.c ****   /*
 100:./lib/switches.c ****     Die Original Umrechenfunktion von Jan Grewe - DLR wurde ersetzt durch
 101:./lib/switches.c ****     eine Rechnung ohne FLOAT-Berechnungen.
 102:./lib/switches.c ****   return  ((unsigned char) ((( 1024.0/(float)i - 1.0)) * 61.0 + 0.5));
 103:./lib/switches.c **** 
 104:./lib/switches.c ****     Wert 61L evtl. anpasssen, falls fuer K1 falsche Werte zurueckgegebn werden.
 105:./lib/switches.c ****   */
 106:./lib/switches.c ****   return ((10240000L / (long)i - 10000L) * MY_SWITCH_VALUE + 5000L) / 10000;
 154               		.stabn	68,0,106,.LM4-.LFBB1
 155               	.LM4:
 156 0022 9C01      		movw r18,r24
 157 0024 40E0      		ldi r20,0
 158 0026 50E0      		ldi r21,0
 159 0028 60E0      		ldi r22,0
 160 002a 70E4      		ldi r23,lo8(64)
 161 002c 8CE9      		ldi r24,lo8(-100)
 162 002e 90E0      		ldi r25,0
 163 0030 00D0      		rcall __divmodsi4
 164 0032 2051      		subi r18,16
 165 0034 3742      		sbci r19,39
 166 0036 4109      		sbc r20,__zero_reg__
 167 0038 5109      		sbc r21,__zero_reg__
 168 003a AEE3      		ldi r26,lo8(62)
 169 003c B0E0      		ldi r27,0
 170 003e 00D0      		rcall __muluhisi3
 171 0040 6857      		subi r22,120
 172 0042 7C4E      		sbci r23,-20
 173 0044 8F4F      		sbci r24,-1
 174 0046 9F4F      		sbci r25,-1
 175 0048 20E1      		ldi r18,lo8(16)
 176 004a 37E2      		ldi r19,lo8(39)
 177 004c 40E0      		ldi r20,0
 178 004e 50E0      		ldi r21,0
 179 0050 00D0      		rcall __divmodsi4
GAS LISTING /tmp/cclNM7M6.s 			page 6


 180 0052 822F      		mov r24,r18
 107:./lib/switches.c **** }
 181               		.stabn	68,0,107,.LM5-.LFBB1
 182               	.LM5:
 183 0054 0895      		ret
 184               		.size	PollSwitch, .-PollSwitch
 185               		.stabs	"i:r(0,4)",64,0,90,24
 186               		.stabn	192,0,0,.LFBB1-.LFBB1
 187               		.stabn	224,0,0,.Lscope1-.LFBB1
 188               	.Lscope1:
 189               		.stabs	"",36,0,0,.Lscope1-.LFBB1
 190               		.stabd	78,0,0
 191               		.section	.text.StartSwitch,"ax",@progbits
 192               		.stabs	"StartSwitch:F(0,47)",36,0,132,StartSwitch
 193               	.global	StartSwitch
 194               		.type	StartSwitch, @function
 195               	StartSwitch:
 196               		.stabd	46,0,0
 108:./lib/switches.c **** 
 109:./lib/switches.c **** 
 110:./lib/switches.c **** 
 111:./lib/switches.c **** /****************************************************************************/
 112:./lib/switches.c **** /*!
 113:./lib/switches.c ****   \brief
 114:./lib/switches.c ****   'Interrupt-Betrieb' zur Tastsensor Abfrage einschalten.
 115:./lib/switches.c **** 
 116:./lib/switches.c ****   \par  Hinweis:
 117:./lib/switches.c ****   Ueber die globale Variable switched kann nach diesem Funktionsaufruf im\n
 118:./lib/switches.c ****   Hauptprogramm geprueft werden, ob eine Taste gedrueckt wurde und kann dann\n
 119:./lib/switches.c ****   bei Bedarf die Funktion PollSwitch() aufrufen.\n
 120:./lib/switches.c **** 
 121:./lib/switches.c ****   \par  Beispiel:
 122:./lib/switches.c ****   (Nur zur Demonstration der Parameter/Returnwerte)
 123:./lib/switches.c ****   \code
 124:./lib/switches.c ****   StartSwitch ();
 125:./lib/switches.c ****   while (!switched)         // wartet auf Tastendruck
 126:./lib/switches.c ****     ;
 127:./lib/switches.c ****   // an dieser Stelle kann mit Pollswitch geprüft werden
 128:./lib/switches.c ****   // welche Taste gedrückt wurde, wenn nötig.
 129:./lib/switches.c ****   switched = FALSE;         // Vorbereitung für neuen Aufruf von StartSwitch()
 130:./lib/switches.c ****   \endcode
 131:./lib/switches.c **** *****************************************************************************/
 132:./lib/switches.c **** void StartSwitch (void)
 133:./lib/switches.c **** {
 197               		.stabn	68,0,133,.LM6-.LFBB2
 198               	.LM6:
 199               	.LFBB2:
 200               	/* prologue: function */
 201               	/* frame size = 0 */
 202               	/* stack size = 0 */
 203               	.L__stack_usage = 0
 134:./lib/switches.c **** 	// ADC Wert von Switchen wird immer abgefragt
 135:./lib/switches.c **** 	// siehe ISRStandard() dort auch das handling von switched=TRUE
 136:./lib/switches.c **** 	cli ();
 204               		.stabn	68,0,136,.LM7-.LFBB2
 205               	.LM7:
 206               	/* #APP */
GAS LISTING /tmp/cclNM7M6.s 			page 7


 207               	 ;  136 "./lib/switches.c" 1
 208 0000 F894      		cli
 209               	 ;  0 "" 2
 137:./lib/switches.c **** 	switched = FALSE;
 210               		.stabn	68,0,137,.LM8-.LFBB2
 211               	.LM8:
 212               	/* #NOAPP */
 213 0002 1092 0000 		sts switched+1,__zero_reg__
 214 0006 1092 0000 		sts switched,__zero_reg__
 138:./lib/switches.c **** 	sei (); 
 215               		.stabn	68,0,138,.LM9-.LFBB2
 216               	.LM9:
 217               	/* #APP */
 218               	 ;  138 "./lib/switches.c" 1
 219 000a 7894      		sei
 220               	 ;  0 "" 2
 221               	/* #NOAPP */
 222 000c 0895      		ret
 223               		.size	StartSwitch, .-StartSwitch
 224               	.Lscope2:
 225               		.stabs	"",36,0,0,.Lscope2-.LFBB2
 226               		.stabd	78,0,0
 227               		.section	.text.StopSwitch,"ax",@progbits
 228               		.stabs	"StopSwitch:F(0,47)",36,0,153,StopSwitch
 229               	.global	StopSwitch
 230               		.type	StopSwitch, @function
 231               	StopSwitch:
 232               		.stabd	46,0,0
 139:./lib/switches.c **** }
 140:./lib/switches.c **** 
 141:./lib/switches.c **** 
 142:./lib/switches.c **** 
 143:./lib/switches.c **** 
 144:./lib/switches.c **** /****************************************************************************/
 145:./lib/switches.c **** /*!
 146:./lib/switches.c ****   \brief
 147:./lib/switches.c ****   Die globale Variable switched wird nicht mehr automatisch bei einem\n
 148:./lib/switches.c ****   Tastendruck gesetzt.
 149:./lib/switches.c **** 
 150:./lib/switches.c ****   \par  Beispiel:
 151:./lib/switches.c ****   (Nicht vorhanden)
 152:./lib/switches.c **** *****************************************************************************/
 153:./lib/switches.c **** void StopSwitch (void)
 154:./lib/switches.c **** {
 233               		.stabn	68,0,154,.LM10-.LFBB3
 234               	.LM10:
 235               	.LFBB3:
 236               	/* prologue: function */
 237               	/* frame size = 0 */
 238               	/* stack size = 0 */
 239               	.L__stack_usage = 0
 240 0000 0895      		ret
 241               		.size	StopSwitch, .-StopSwitch
 242               	.Lscope3:
 243               		.stabs	"",36,0,0,.Lscope3-.LFBB3
 244               		.stabd	78,0,0
 245               		.text
GAS LISTING /tmp/cclNM7M6.s 			page 8


 246               		.stabs	"",100,0,0,.Letext0
 247               	.Letext0:
 248               		.ident	"GCC: (GNU) 4.9.2"
GAS LISTING /tmp/cclNM7M6.s 			page 9


DEFINED SYMBOLS
                            *ABS*:0000000000000000 switches.c
     /tmp/cclNM7M6.s:2      *ABS*:000000000000003e __SP_H__
     /tmp/cclNM7M6.s:3      *ABS*:000000000000003d __SP_L__
     /tmp/cclNM7M6.s:4      *ABS*:000000000000003f __SREG__
     /tmp/cclNM7M6.s:5      *ABS*:0000000000000000 __tmp_reg__
     /tmp/cclNM7M6.s:6      *ABS*:0000000000000001 __zero_reg__
     /tmp/cclNM7M6.s:122    .text.PollSwitch:0000000000000000 PollSwitch
     /tmp/cclNM7M6.s:195    .text.StartSwitch:0000000000000000 StartSwitch
     /tmp/cclNM7M6.s:231    .text.StopSwitch:0000000000000000 StopSwitch

UNDEFINED SYMBOLS
switched
ReadADC
__divmodsi4
__muluhisi3
